target datalayout = "e-m:e-p270:32:32-p271:32:32-p272:64:64-i64:64-i128:128-f80:128-n8:16:32:64-S128"
target triple = "x86_64-pc-linux-gnu"

@.str.103 = private unnamed_addr constant [14 x i8] c"%d (=%f [lx])\00", align 1
@.str.104 = private unnamed_addr constant [13 x i8] c"Out of range\00", align 1

; Function Attrs: null_pointer_is_valid sspstrong uwtable
define internal void @decode_illum_meas_max_value(ptr noundef %0, i16 noundef zeroext %1) #0 {
  %3 = alloca ptr, align 8
  %4 = alloca i16, align 2
  store ptr %0, ptr %3, align 8
  store i16 %1, ptr %4, align 2
  %5 = load i16, ptr %4, align 2
  %6 = zext i16 %5 to i32
  %7 = icmp slt i32 %6, 1
  br i1 %7, label %12, label %8

8:                                                ; preds = %2
  %9 = load i16, ptr %4, align 2
  %10 = zext i16 %9 to i32
  %11 = icmp sgt i32 %10, 65534
  br i1 %11, label %12, label %17

12:                                               ; preds = %8, %2
  %13 = load ptr, ptr %3, align 8
  %14 = load ptr, ptr %3, align 8
  %15 = call i64 @llvm.objectsize.i64.p0(ptr %14, i1 false, i1 true, i1 true)
  %16 = call i32 (ptr, i64, i32, i64, ptr, ...) @__snprintf_chk(ptr noundef %13, i64 noundef 240, i32 noundef 2, i64 noundef %15, ptr noundef @.str.104)
  br label %30

17:                                               ; preds = %8
  %18 = load ptr, ptr %3, align 8
  %19 = load ptr, ptr %3, align 8
  %20 = call i64 @llvm.objectsize.i64.p0(ptr %19, i1 false, i1 true, i1 true)
  %21 = load i16, ptr %4, align 2
  %22 = zext i16 %21 to i32
  %23 = load i16, ptr %4, align 2
  %24 = zext i16 %23 to i32
  %25 = sitofp i32 %24 to double
  %26 = fdiv double %25, 1.000000e+04
  %27 = call double @pow(double noundef 1.000000e+01, double noundef %26) #6
  %28 = fsub double %27, 1.000000e+00
  %29 = call i32 (ptr, i64, i32, i64, ptr, ...) @__snprintf_chk(ptr noundef %18, i64 noundef 240, i32 noundef 2, i64 noundef %20, ptr noundef @.str.103, i32 noundef %22, double noundef %28)
  br label %30

30:                                               ; preds = %17, %12
  ret void
}